; Function Attrs: nounwind sspstrong uwtable
define internal i64 @rb_stat_rdev(i64 noundef %0) #0 {
  %2 = tail call ptr @rb_check_typeddata(i64 noundef %0, ptr noundef nonnull @stat_data_type) #22
  %3 = getelementptr inbounds nuw i8, ptr %2, i64 144
  %4 = load i8, ptr %3, align 8, !tbaa !28, !range !278, !noundef !279
  %5 = trunc nuw i8 %4 to i1
  br i1 %5, label %get_stat.exit, label %6

6:                                                ; preds = %1
  %7 = load i64, ptr @rb_eTypeError, align 8, !tbaa !12
  tail call void (i64, ptr, ...) @rb_raise(i64 noundef %7, ptr noundef nonnull @.str.147) #24
  unreachable

get_stat.exit:                                    ; preds = %1
  %8 = getelementptr inbounds nuw i8, ptr %2, i64 40
  %9 = load i64, ptr %8, align 8, !tbaa !281
  %10 = icmp ult i64 %9, 4611686018427387904
  br i1 %10, label %11, label %14

11:                                               ; preds = %get_stat.exit
  %12 = shl nuw nsw i64 %9, 1
  %13 = or disjoint i64 %12, 1
  br label %rb_ulong2num_inline.exit

14:                                               ; preds = %get_stat.exit
  %15 = tail call i64 @rb_uint2big(i64 noundef %9) #22
  br label %rb_ulong2num_inline.exit

rb_ulong2num_inline.exit:                         ; preds = %11, %14
  %.0.i = phi i64 [ %13, %11 ], [ %15, %14 ]
  ret i64 %.0.i
}